; Function Attrs: mustprogress nofree norecurse nosync nounwind willreturn memory(argmem: readwrite) uwtable
define void @ossl_quic_channel_set_incoming_stream_auto_reject(ptr noundef captures(none) initializes((1456, 1464)) %0, i32 noundef %1, i64 noundef %2) local_unnamed_addr #3 {
  %.not = icmp eq i32 %1, 0
  %4 = getelementptr inbounds nuw i8, ptr %0, i64 1568
  %5 = load i64, ptr %4, align 8
  %6 = select i1 %.not, i64 0, i64 1073741824
  %7 = and i64 %5, -1073741825
  %8 = or disjoint i64 %7, %6
  store i64 %8, ptr %4, align 8
  %9 = getelementptr inbounds nuw i8, ptr %0, i64 1456
  store i64 %2, ptr %9, align 8, !tbaa !249
  ret void
}